; Function Attrs: nounwind sspstrong uwtable
define internal range(i32 0, 9) i32 @riscv_gdb_set_csr(ptr noundef %0, ptr noundef readonly captures(none) %1, i32 noundef %2) #0 {
  %4 = tail call ptr @object_dynamic_cast_assert(ptr noundef %0, ptr noundef nonnull @.str.5, ptr noundef nonnull @.str.6, i32 noundef 56, ptr noundef nonnull @__func__.RISCV_CPU) #7
  %5 = icmp slt i32 %2, 4096
  br i1 %5, label %6, label %9

6:                                                ; preds = %3
  %7 = getelementptr inbounds nuw i8, ptr %4, i64 11200
  %.val = load i64, ptr %1, align 1
  %8 = tail call i32 @riscv_csrrw_debug(ptr noundef nonnull %7, i32 noundef %2, ptr noundef null, i64 noundef %.val, i64 noundef -1) #7
  %.not = icmp eq i32 %8, -1
  br i1 %.not, label %10, label %9

9:                                                ; preds = %6, %3
  br label %10

10:                                               ; preds = %6, %9
  %.1 = phi i32 [ 0, %9 ], [ 8, %6 ]
  ret i32 %.1
}